; ModuleID = 'source-C-CXX/59/1882.c'
source_filename = "source-C-CXX/59/1882.c"
target datalayout = "e-m:e-p270:32:32-p271:32:32-p272:64:64-i64:64-f80:128-n8:16:32:64-S128"
target triple = "x86_64-pc-linux-gnu"

@.str = private unnamed_addr constant [3 x i8] c"%d\00", align 1
@.str.1 = private unnamed_addr constant [7 x i8] c"%d %d\0A\00", align 1
@.str.2 = private unnamed_addr constant [6 x i8] c"empty\00", align 1

; Function Attrs: nofree nounwind sspstrong uwtable
define dso_local i32 @main() local_unnamed_addr #0 {
  %1 = alloca i32, align 4
  %2 = alloca [10000 x i32], align 16
  %3 = bitcast i32* %1 to i8*
  call void @llvm.lifetime.start.p0i8(i64 4, i8* nonnull %3) #4
  %4 = bitcast [10000 x i32]* %2 to i8*
  call void @llvm.lifetime.start.p0i8(i64 40000, i8* nonnull %4) #4
  call void @llvm.memset.p0i8.i64(i8* noundef nonnull align 16 dereferenceable(40000) %4, i8 0, i64 40000, i1 false)
  %5 = call i32 (i8*, ...) @__isoc99_scanf(i8* getelementptr inbounds ([3 x i8], [3 x i8]* @.str, i64 0, i64 0), i32* nonnull %1)
  %6 = load i32, i32* %1, align 4, !tbaa !5
  %7 = icmp slt i32 %6, 2
  br i1 %7, label %56, label %8

8:                                                ; preds = %0
  %9 = add i32 %6, 1
  br label %10

10:                                               ; preds = %34, %8
  %11 = phi i32 [ 3, %8 ], [ %37, %34 ]
  %12 = phi i32 [ 2, %8 ], [ %36, %34 ]
  %13 = phi i32 [ 0, %8 ], [ %35, %34 ]
  br label %20

14:                                               ; preds = %34
  %15 = icmp sgt i32 %35, 0
  br i1 %15, label %16, label %56

16:                                               ; preds = %14
  %17 = zext i32 %35 to i64
  %18 = getelementptr inbounds [10000 x i32], [10000 x i32]* %2, i64 0, i64 0
  %19 = load i32, i32* %18, align 16, !tbaa !5
  br label %39

20:                                               ; preds = %10, %24
  %21 = phi i32 [ %25, %24 ], [ 2, %10 ]
  %22 = urem i32 %12, %21
  %23 = icmp eq i32 %22, 0
  br i1 %23, label %27, label %24

24:                                               ; preds = %20
  %25 = add nuw i32 %21, 1
  %26 = icmp eq i32 %25, %11
  br i1 %26, label %27, label %20, !llvm.loop !9

27:                                               ; preds = %24, %20
  %28 = phi i32 [ %11, %24 ], [ %21, %20 ]
  %29 = icmp eq i32 %12, %28
  br i1 %29, label %30, label %34

30:                                               ; preds = %27
  %31 = sext i32 %13 to i64
  %32 = getelementptr inbounds [10000 x i32], [10000 x i32]* %2, i64 0, i64 %31
  store i32 %12, i32* %32, align 4, !tbaa !5
  %33 = add nsw i32 %13, 1
  br label %34

34:                                               ; preds = %27, %30
  %35 = phi i32 [ %33, %30 ], [ %13, %27 ]
  %36 = add nuw nsw i32 %12, 1
  %37 = add nuw i32 %11, 1
  %38 = icmp eq i32 %11, %9
  br i1 %38, label %14, label %10, !llvm.loop !11

39:                                               ; preds = %16, %51
  %40 = phi i32 [ %19, %16 ], [ %45, %51 ]
  %41 = phi i64 [ 0, %16 ], [ %43, %51 ]
  %42 = phi i32 [ 0, %16 ], [ %52, %51 ]
  %43 = add nuw nsw i64 %41, 1
  %44 = getelementptr inbounds [10000 x i32], [10000 x i32]* %2, i64 0, i64 %43
  %45 = load i32, i32* %44, align 4, !tbaa !5
  %46 = sub nsw i32 %45, %40
  %47 = icmp eq i32 %46, 2
  br i1 %47, label %48, label %51

48:                                               ; preds = %39
  %49 = call i32 (i8*, ...) @printf(i8* nonnull dereferenceable(1) getelementptr inbounds ([7 x i8], [7 x i8]* @.str.1, i64 0, i64 0), i32 %40, i32 %45)
  %50 = add nsw i32 %42, 1
  br label %51

51:                                               ; preds = %39, %48
  %52 = phi i32 [ %50, %48 ], [ %42, %39 ]
  %53 = icmp eq i64 %43, %17
  br i1 %53, label %54, label %39, !llvm.loop !12

54:                                               ; preds = %51
  %55 = icmp eq i32 %52, 0
  br i1 %55, label %56, label %58

56:                                               ; preds = %0, %14, %54
  %57 = call i32 (i8*, ...) @printf(i8* nonnull dereferenceable(1) getelementptr inbounds ([6 x i8], [6 x i8]* @.str.2, i64 0, i64 0))
  br label %58

58:                                               ; preds = %56, %54
  call void @llvm.lifetime.end.p0i8(i64 40000, i8* nonnull %4) #4
  call void @llvm.lifetime.end.p0i8(i64 4, i8* nonnull %3) #4
  ret i32 0
}

; Function Attrs: argmemonly mustprogress nofree nosync nounwind willreturn
declare void @llvm.lifetime.start.p0i8(i64 immarg, i8* nocapture) #1

; Function Attrs: argmemonly mustprogress nofree nounwind willreturn writeonly
declare void @llvm.memset.p0i8.i64(i8* nocapture writeonly, i8, i64, i1 immarg) #2

; Function Attrs: nofree nounwind
declare noundef i32 @__isoc99_scanf(i8* nocapture noundef readonly, ...) local_unnamed_addr #3

; Function Attrs: nofree nounwind
declare noundef i32 @printf(i8* nocapture noundef readonly, ...) local_unnamed_addr #3

; Function Attrs: argmemonly mustprogress nofree nosync nounwind willreturn
declare void @llvm.lifetime.end.p0i8(i64 immarg, i8* nocapture) #1


!llvm.module.flags = !{!0, !1, !2, !3}
!llvm.ident = !{!4}

!0 = !{i32 1, !"wchar_size", i32 4}
!1 = !{i32 7, !"PIC Level", i32 2}
!2 = !{i32 7, !"PIE Level", i32 2}
!3 = !{i32 7, !"uwtable", i32 1}
!4 = !{!"clang version 13.0.0"}
!5 = !{!6, !6, i64 0}
!6 = !{!"int", !7, i64 0}
!7 = !{!"omnipotent char", !8, i64 0}
!8 = !{!"Simple C/C++ TBAA"}
!9 = distinct !{!9, !10}
!10 = !{!"llvm.loop.mustprogress"}
!11 = distinct !{!11, !10}
!12 = distinct !{!12, !10}
